target datalayout = "e-m:e-p270:32:32-p271:32:32-p272:64:64-i64:64-i128:128-f80:128-n8:16:32:64-S128"
target triple = "x86_64-unknown-linux-gnu"

%"class.absl::Mutex" = type { %"struct.std::atomic" }
%"struct.std::atomic" = type { %"struct.std::__atomic_base" }
%"struct.std::__atomic_base" = type { i64 }
%"class.absl::CondVar" = type { %"struct.std::atomic" }
%"class.absl::MutexLock" = type { ptr }
%"class.absl::synchronization_internal::KernelTimeout" = type { i64 }
%"class.absl::Duration" = type { %"class.absl::Duration::HiRep", i32 }
%"class.absl::Duration::HiRep" = type { i32, i32 }
%"struct.(anonymous namespace)::TestContext" = type { i32, i32, i32, i32, %"class.absl::Mutex", %"class.absl::CondVar" }

; Function Attrs: mustprogress nounwind uwtable
define linkonce_odr dso_local noundef nonnull align 4 dereferenceable(8) ptr @_ZN4absl8Duration5HiRepaSEl(ptr noundef nonnull align 4 dereferenceable(8) %this, i64 noundef %value) #7 comdat align 2 {
entry:
  %this.addr = alloca ptr, align 8
  %value.addr = alloca i64, align 8
  %unsigned_value = alloca i64, align 8
  store ptr %this, ptr %this.addr, align 8
  store i64 %value, ptr %value.addr, align 8
  %this1 = load ptr, ptr %this.addr, align 8
  %0 = load i64, ptr %value.addr, align 8
  store i64 %0, ptr %unsigned_value, align 8
  %1 = load i64, ptr %unsigned_value, align 8
  %shr = lshr i64 %1, 32
  %conv = trunc i64 %shr to i32
  %hi_ = getelementptr inbounds %"class.absl::Duration::HiRep", ptr %this1, i32 0, i32 1
  store i32 %conv, ptr %hi_, align 4
  %2 = load i64, ptr %unsigned_value, align 8
  %conv2 = trunc i64 %2 to i32
  %lo_ = getelementptr inbounds %"class.absl::Duration::HiRep", ptr %this1, i32 0, i32 0
  store i32 %conv2, ptr %lo_, align 4
  ret ptr %this1
}

; Function Attrs: mustprogress uwtable
define linkonce_odr dso_local void @_ZN4absl8Duration5HiRepC2El(ptr noundef nonnull align 4 dereferenceable(8) %this, i64 noundef %value) unnamed_addr #4 comdat align 2 {
entry:
  %this.addr = alloca ptr, align 8
  %value.addr = alloca i64, align 8
  store ptr %this, ptr %this.addr, align 8
  store i64 %value, ptr %value.addr, align 8
  %this1 = load ptr, ptr %this.addr, align 8
  %lo_ = getelementptr inbounds %"class.absl::Duration::HiRep", ptr %this1, i32 0, i32 0
  store i32 0, ptr %lo_, align 4
  %hi_ = getelementptr inbounds %"class.absl::Duration::HiRep", ptr %this1, i32 0, i32 1
  store i32 0, ptr %hi_, align 4
  %0 = load i64, ptr %value.addr, align 8
  %call = call noundef nonnull align 4 dereferenceable(8) ptr @_ZN4absl8Duration5HiRepaSEl(ptr noundef nonnull align 4 dereferenceable(8) %this1, i64 noundef %0)
  ret void
}

; Function Attrs: mustprogress uwtable
define linkonce_odr dso_local void @_ZN4absl8DurationC2Elj(ptr noundef nonnull align 4 dereferenceable(12) %this, i64 noundef %hi, i32 noundef %lo) unnamed_addr #4 comdat align 2 {
entry:
  %this.addr = alloca ptr, align 8
  %hi.addr = alloca i64, align 8
  %lo.addr = alloca i32, align 4
  store ptr %this, ptr %this.addr, align 8
  store i64 %hi, ptr %hi.addr, align 8
  store i32 %lo, ptr %lo.addr, align 4
  %this1 = load ptr, ptr %this.addr, align 8
  %rep_hi_ = getelementptr inbounds %"class.absl::Duration", ptr %this1, i32 0, i32 0
  %0 = load i64, ptr %hi.addr, align 8
  call void @_ZN4absl8Duration5HiRepC2El(ptr noundef nonnull align 4 dereferenceable(8) %rep_hi_, i64 noundef %0)
  %rep_lo_ = getelementptr inbounds %"class.absl::Duration", ptr %this1, i32 0, i32 1
  %1 = load i32, ptr %lo.addr, align 4
  store i32 %1, ptr %rep_lo_, align 4
  ret void
}

; Function Attrs: mustprogress nounwind willreturn memory(none) uwtable
define linkonce_odr dso_local { i64, i32 } @_ZN4absl13time_internal12MakeDurationElj(i64 noundef %hi, i32 noundef %lo) #13 comdat {
entry:
  %retval = alloca %"class.absl::Duration", align 4
  %hi.addr = alloca i64, align 8
  %lo.addr = alloca i32, align 4
  %retval.coerce = alloca { i64, i32 }, align 8
  store i64 %hi, ptr %hi.addr, align 8
  store i32 %lo, ptr %lo.addr, align 4
  %0 = load i64, ptr %hi.addr, align 8
  %1 = load i32, ptr %lo.addr, align 4
  call void @_ZN4absl8DurationC2Elj(ptr noundef nonnull align 4 dereferenceable(12) %retval, i64 noundef %0, i32 noundef %1)
  call void @llvm.memcpy.p0.p0.i64(ptr align 8 %retval.coerce, ptr align 4 %retval, i64 12, i1 false)
  %2 = load { i64, i32 }, ptr %retval.coerce, align 8
  ret { i64, i32 } %2
}

; Function Attrs: mustprogress nounwind willreturn memory(none) uwtable
define linkonce_odr dso_local { i64, i32 } @_ZN4absl13time_internal12MakeDurationEll(i64 noundef %hi, i64 noundef %lo) #13 comdat {
entry:
  %retval = alloca %"class.absl::Duration", align 4
  %hi.addr = alloca i64, align 8
  %lo.addr = alloca i64, align 8
  %tmp.coerce = alloca { i64, i32 }, align 8
  %retval.coerce = alloca { i64, i32 }, align 8
  store i64 %hi, ptr %hi.addr, align 8
  store i64 %lo, ptr %lo.addr, align 8
  %0 = load i64, ptr %hi.addr, align 8
  %1 = load i64, ptr %lo.addr, align 8
  %conv = trunc i64 %1 to i32
  %call = call { i64, i32 } @_ZN4absl13time_internal12MakeDurationElj(i64 noundef %0, i32 noundef %conv) #28
  store { i64, i32 } %call, ptr %tmp.coerce, align 8
  call void @llvm.memcpy.p0.p0.i64(ptr align 4 %retval, ptr align 8 %tmp.coerce, i64 12, i1 false)
  call void @llvm.memcpy.p0.p0.i64(ptr align 8 %retval.coerce, ptr align 4 %retval, i64 12, i1 false)
  %2 = load { i64, i32 }, ptr %retval.coerce, align 8
  ret { i64, i32 } %2
}

; Function Attrs: mustprogress nounwind willreturn memory(none) uwtable
define linkonce_odr dso_local { i64, i32 } @_ZN4absl13time_internal22MakeNormalizedDurationEll(i64 noundef %sec, i64 noundef %ticks) #13 comdat {
entry:
  %retval = alloca %"class.absl::Duration", align 4
  %sec.addr = alloca i64, align 8
  %ticks.addr = alloca i64, align 8
  %tmp.coerce = alloca { i64, i32 }, align 8
  %tmp.coerce2 = alloca { i64, i32 }, align 8
  %retval.coerce = alloca { i64, i32 }, align 8
  store i64 %sec, ptr %sec.addr, align 8
  store i64 %ticks, ptr %ticks.addr, align 8
  %0 = load i64, ptr %ticks.addr, align 8
  %cmp = icmp slt i64 %0, 0
  br i1 %cmp, label %cond.true, label %cond.false

cond.true:                                        ; preds = %entry
  %1 = load i64, ptr %sec.addr, align 8
  %sub = sub nsw i64 %1, 1
  %2 = load i64, ptr %ticks.addr, align 8
  %add = add nsw i64 %2, 4000000000
  %call = call { i64, i32 } @_ZN4absl13time_internal12MakeDurationEll(i64 noundef %sub, i64 noundef %add) #28
  store { i64, i32 } %call, ptr %tmp.coerce, align 8
  call void @llvm.memcpy.p0.p0.i64(ptr align 4 %retval, ptr align 8 %tmp.coerce, i64 12, i1 false)
  br label %cond.end

cond.false:                                       ; preds = %entry
  %3 = load i64, ptr %sec.addr, align 8
  %4 = load i64, ptr %ticks.addr, align 8
  %call1 = call { i64, i32 } @_ZN4absl13time_internal12MakeDurationEll(i64 noundef %3, i64 noundef %4) #28
  store { i64, i32 } %call1, ptr %tmp.coerce2, align 8
  call void @llvm.memcpy.p0.p0.i64(ptr align 4 %retval, ptr align 8 %tmp.coerce2, i64 12, i1 false)
  br label %cond.end

cond.end:                                         ; preds = %cond.false, %cond.true
  call void @llvm.memcpy.p0.p0.i64(ptr align 8 %retval.coerce, ptr align 4 %retval, i64 12, i1 false)
  %5 = load { i64, i32 }, ptr %retval.coerce, align 8
  ret { i64, i32 } %5
}

; Function Attrs: mustprogress nounwind willreturn memory(none) uwtable
define linkonce_odr dso_local { i64, i32 } @_ZN4absl13time_internal9FromInt64ILl1EEENS_8DurationElSt5ratioILl1EXT_EE(i64 noundef %v) #13 comdat {
entry:
  %retval = alloca %"class.absl::Duration", align 4
  %v.addr = alloca i64, align 8
  %tmp.coerce = alloca { i64, i32 }, align 8
  %retval.coerce = alloca { i64, i32 }, align 8
  store i64 %v, ptr %v.addr, align 8
  %0 = load i64, ptr %v.addr, align 8
  %div = sdiv i64 %0, 1
  %1 = load i64, ptr %v.addr, align 8
  %rem = srem i64 %1, 1
  %mul = mul nsw i64 %rem, 4
  %mul1 = mul nsw i64 %mul, 1000
  %mul2 = mul nsw i64 %mul1, 1000
  %mul3 = mul nsw i64 %mul2, 1000
  %div4 = sdiv i64 %mul3, 1
  %call = call { i64, i32 } @_ZN4absl13time_internal22MakeNormalizedDurationEll(i64 noundef %div, i64 noundef %div4) #28
  store { i64, i32 } %call, ptr %tmp.coerce, align 8
  call void @llvm.memcpy.p0.p0.i64(ptr align 4 %retval, ptr align 8 %tmp.coerce, i64 12, i1 false)
  call void @llvm.memcpy.p0.p0.i64(ptr align 8 %retval.coerce, ptr align 4 %retval, i64 12, i1 false)
  %2 = load { i64, i32 }, ptr %retval.coerce, align 8
  ret { i64, i32 } %2
}

; Function Attrs: mustprogress nounwind uwtable
define linkonce_odr dso_local void @_ZN4absl9MutexLockD2Ev(ptr noundef nonnull align 8 dereferenceable(8) %this) unnamed_addr #7 comdat align 2 personality ptr @__gxx_personality_v0 {
entry:
  %this.addr = alloca ptr, align 8
  store ptr %this, ptr %this.addr, align 8
  %this1 = load ptr, ptr %this.addr, align 8
  %mu_ = getelementptr inbounds %"class.absl::MutexLock", ptr %this1, i32 0, i32 0
  %0 = load ptr, ptr %mu_, align 8
  invoke void @_ZN4absl5Mutex6UnlockEv(ptr noundef nonnull align 8 dereferenceable(8) %0)
          to label %invoke.cont unwind label %terminate.lpad

invoke.cont:                                      ; preds = %entry
  ret void

terminate.lpad:                                   ; preds = %entry
  %1 = landingpad { ptr, i32 }
          catch ptr null
  %2 = extractvalue { ptr, i32 } %1, 0
  call void @__clang_call_terminate(ptr %2) #27
  unreachable
}

; Function Attrs: mustprogress uwtable
define linkonce_odr dso_local noundef zeroext i1 @_ZN4absl7CondVar15WaitWithTimeoutEPNS_5MutexENS_8DurationE(ptr noundef nonnull align 8 dereferenceable(8) %this, ptr noundef %mu, i64 %timeout.coerce0, i32 %timeout.coerce1) #4 comdat align 2 {
entry:
  %timeout = alloca %"class.absl::Duration", align 4
  %coerce = alloca { i64, i32 }, align 4
  %this.addr = alloca ptr, align 8
  %mu.addr = alloca ptr, align 8
  %agg.tmp = alloca %"class.absl::synchronization_internal::KernelTimeout", align 8
  %agg.tmp2 = alloca %"class.absl::Duration", align 4
  %agg.tmp2.coerce = alloca { i64, i32 }, align 4
  %0 = getelementptr inbounds { i64, i32 }, ptr %coerce, i32 0, i32 0
  store i64 %timeout.coerce0, ptr %0, align 4
  %1 = getelementptr inbounds { i64, i32 }, ptr %coerce, i32 0, i32 1
  store i32 %timeout.coerce1, ptr %1, align 4
  call void @llvm.memcpy.p0.p0.i64(ptr align 4 %timeout, ptr align 4 %coerce, i64 12, i1 false)
  store ptr %this, ptr %this.addr, align 8
  store ptr %mu, ptr %mu.addr, align 8
  %this1 = load ptr, ptr %this.addr, align 8
  %2 = load ptr, ptr %mu.addr, align 8
  call void @llvm.memcpy.p0.p0.i64(ptr align 4 %agg.tmp2, ptr align 4 %timeout, i64 12, i1 false)
  call void @llvm.memcpy.p0.p0.i64(ptr align 4 %agg.tmp2.coerce, ptr align 4 %agg.tmp2, i64 12, i1 false)
  %3 = getelementptr inbounds { i64, i32 }, ptr %agg.tmp2.coerce, i32 0, i32 0
  %4 = load i64, ptr %3, align 4
  %5 = getelementptr inbounds { i64, i32 }, ptr %agg.tmp2.coerce, i32 0, i32 1
  %6 = load i32, ptr %5, align 4
  call void @_ZN4absl24synchronization_internal13KernelTimeoutC1ENS_8DurationE(ptr noundef nonnull align 8 dereferenceable(8) %agg.tmp, i64 %4, i32 %6)
  %coerce.dive = getelementptr inbounds %"class.absl::synchronization_internal::KernelTimeout", ptr %agg.tmp, i32 0, i32 0
  %7 = load i64, ptr %coerce.dive, align 8
  %call = call noundef zeroext i1 @_ZN4absl7CondVar10WaitCommonEPNS_5MutexENS_24synchronization_internal13KernelTimeoutE(ptr noundef nonnull align 8 dereferenceable(8) %this1, ptr noundef %2, i64 %7)
  ret i1 %call
}

; Function Attrs: mustprogress nounwind willreturn memory(none) uwtable
define linkonce_odr dso_local { i64, i32 } @_ZN4absl7SecondsIiTnNSt9enable_ifIXoosr3std11is_integralIT_EE5valuesr3std7is_enumIS2_EE5valueEiE4typeELi0EEENS_8DurationES2_(i32 noundef %n) #13 comdat {
entry:
  %retval = alloca %"class.absl::Duration", align 4
  %n.addr = alloca i32, align 4
  %tmp.coerce = alloca { i64, i32 }, align 8
  %retval.coerce = alloca { i64, i32 }, align 8
  store i32 %n, ptr %n.addr, align 4
  %0 = load i32, ptr %n.addr, align 4
  %conv = sext i32 %0 to i64
  %call = call { i64, i32 } @_ZN4absl13time_internal9FromInt64ILl1EEENS_8DurationElSt5ratioILl1EXT_EE(i64 noundef %conv) #28
  store { i64, i32 } %call, ptr %tmp.coerce, align 8
  call void @llvm.memcpy.p0.p0.i64(ptr align 4 %retval, ptr align 8 %tmp.coerce, i64 12, i1 false)
  call void @llvm.memcpy.p0.p0.i64(ptr align 8 %retval.coerce, ptr align 4 %retval, i64 12, i1 false)
  %1 = load { i64, i32 }, ptr %retval.coerce, align 8
  ret { i64, i32 } %1
}

; Function Attrs: mustprogress uwtable
define linkonce_odr dso_local void @_ZN4absl9MutexLockC2EPNS_5MutexE(ptr noundef nonnull align 8 dereferenceable(8) %this, ptr noundef %mu) unnamed_addr #4 comdat align 2 {
entry:
  %this.addr = alloca ptr, align 8
  %mu.addr = alloca ptr, align 8
  store ptr %this, ptr %this.addr, align 8
  store ptr %mu, ptr %mu.addr, align 8
  %this1 = load ptr, ptr %this.addr, align 8
  %mu_ = getelementptr inbounds %"class.absl::MutexLock", ptr %this1, i32 0, i32 0
  %0 = load ptr, ptr %mu.addr, align 8
  store ptr %0, ptr %mu_, align 8
  %mu_2 = getelementptr inbounds %"class.absl::MutexLock", ptr %this1, i32 0, i32 0
  %1 = load ptr, ptr %mu_2, align 8
  call void @_ZN4absl5Mutex4LockEv(ptr noundef nonnull align 8 dereferenceable(8) %1)
  ret void
}

; Function Attrs: mustprogress uwtable
define internal void @_ZN12_GLOBAL__N_113TestCVTimeoutEPNS_11TestContextEi(ptr noundef %cxt, i32 noundef %c) #4 personality ptr @__gxx_personality_v0 {
entry:
  %cxt.addr = alloca ptr, align 8
  %c.addr = alloca i32, align 4
  %target = alloca i32, align 4
  %l = alloca %"class.absl::MutexLock", align 8
  %exn.slot = alloca ptr, align 8
  %ehselector.slot = alloca i32, align 4
  %agg.tmp = alloca %"class.absl::Duration", align 4
  %tmp.coerce = alloca { i64, i32 }, align 8
  %agg.tmp.coerce = alloca { i64, i32 }, align 4
  %a = alloca i32, align 4
  store ptr %cxt, ptr %cxt.addr, align 8
  store i32 %c, ptr %c.addr, align 4
  %0 = load i32, ptr %c.addr, align 4
  store i32 %0, ptr %target, align 4
  %1 = load ptr, ptr %cxt.addr, align 8
  %mu = getelementptr inbounds %"struct.(anonymous namespace)::TestContext", ptr %1, i32 0, i32 4
  call void @_ZN4absl9MutexLockC2EPNS_5MutexE(ptr noundef nonnull align 8 dereferenceable(8) %l, ptr noundef %mu)
  %2 = load ptr, ptr %cxt.addr, align 8
  %mu1 = getelementptr inbounds %"struct.(anonymous namespace)::TestContext", ptr %2, i32 0, i32 4
  invoke void @_ZNK4absl5Mutex10AssertHeldEv(ptr noundef nonnull align 8 dereferenceable(8) %mu1)
          to label %invoke.cont unwind label %lpad

invoke.cont:                                      ; preds = %entry
  br label %while.cond

while.cond:                                       ; preds = %if.end, %invoke.cont
  %3 = load ptr, ptr %cxt.addr, align 8
  %g0 = getelementptr inbounds %"struct.(anonymous namespace)::TestContext", ptr %3, i32 0, i32 2
  %4 = load i32, ptr %g0, align 8
  %5 = load ptr, ptr %cxt.addr, align 8
  %iterations = getelementptr inbounds %"struct.(anonymous namespace)::TestContext", ptr %5, i32 0, i32 0
  %6 = load i32, ptr %iterations, align 8
  %cmp = icmp slt i32 %4, %6
  br i1 %cmp, label %while.body, label %while.end20

while.body:                                       ; preds = %while.cond
  br label %while.cond2

while.cond2:                                      ; preds = %invoke.cont10, %while.body
  %7 = load ptr, ptr %cxt.addr, align 8
  %g03 = getelementptr inbounds %"struct.(anonymous namespace)::TestContext", ptr %7, i32 0, i32 2
  %8 = load i32, ptr %g03, align 8
  %9 = load i32, ptr %target, align 4
  %cmp4 = icmp ne i32 %8, %9
  br i1 %cmp4, label %land.rhs, label %land.end

land.rhs:                                         ; preds = %while.cond2
  %10 = load ptr, ptr %cxt.addr, align 8
  %g05 = getelementptr inbounds %"struct.(anonymous namespace)::TestContext", ptr %10, i32 0, i32 2
  %11 = load i32, ptr %g05, align 8
  %12 = load ptr, ptr %cxt.addr, align 8
  %iterations6 = getelementptr inbounds %"struct.(anonymous namespace)::TestContext", ptr %12, i32 0, i32 0
  %13 = load i32, ptr %iterations6, align 8
  %cmp7 = icmp ne i32 %11, %13
  br label %land.end

land.end:                                         ; preds = %land.rhs, %while.cond2
  %14 = phi i1 [ false, %while.cond2 ], [ %cmp7, %land.rhs ]
  br i1 %14, label %while.body8, label %while.end

while.body8:                                      ; preds = %land.end
  %15 = load ptr, ptr %cxt.addr, align 8
  %cv = getelementptr inbounds %"struct.(anonymous namespace)::TestContext", ptr %15, i32 0, i32 5
  %16 = load ptr, ptr %cxt.addr, align 8
  %mu9 = getelementptr inbounds %"struct.(anonymous namespace)::TestContext", ptr %16, i32 0, i32 4
  %call = call { i64, i32 } @_ZN4absl7SecondsIiTnNSt9enable_ifIXoosr3std11is_integralIT_EE5valuesr3std7is_enumIS2_EE5valueEiE4typeELi0EEENS_8DurationES2_(i32 noundef 100) #28
  store { i64, i32 } %call, ptr %tmp.coerce, align 8
  call void @llvm.memcpy.p0.p0.i64(ptr align 4 %agg.tmp, ptr align 8 %tmp.coerce, i64 12, i1 false)
  call void @llvm.memcpy.p0.p0.i64(ptr align 4 %agg.tmp.coerce, ptr align 4 %agg.tmp, i64 12, i1 false)
  %17 = getelementptr inbounds { i64, i32 }, ptr %agg.tmp.coerce, i32 0, i32 0
  %18 = load i64, ptr %17, align 4
  %19 = getelementptr inbounds { i64, i32 }, ptr %agg.tmp.coerce, i32 0, i32 1
  %20 = load i32, ptr %19, align 4
  %call11 = invoke noundef zeroext i1 @_ZN4absl7CondVar15WaitWithTimeoutEPNS_5MutexENS_8DurationE(ptr noundef nonnull align 8 dereferenceable(8) %cv, ptr noundef %mu9, i64 %18, i32 %20)
          to label %invoke.cont10 unwind label %lpad

invoke.cont10:                                    ; preds = %while.body8
  br label %while.cond2, !llvm.loop !57

lpad:                                             ; preds = %if.then, %while.body8, %entry
  %21 = landingpad { ptr, i32 }
          cleanup
  %22 = extractvalue { ptr, i32 } %21, 0
  store ptr %22, ptr %exn.slot, align 8
  %23 = extractvalue { ptr, i32 } %21, 1
  store i32 %23, ptr %ehselector.slot, align 4
  call void @_ZN4absl9MutexLockD2Ev(ptr noundef nonnull align 8 dereferenceable(8) %l) #3
  br label %eh.resume

while.end:                                        ; preds = %land.end
  %24 = load ptr, ptr %cxt.addr, align 8
  %g012 = getelementptr inbounds %"struct.(anonymous namespace)::TestContext", ptr %24, i32 0, i32 2
  %25 = load i32, ptr %g012, align 8
  %26 = load ptr, ptr %cxt.addr, align 8
  %iterations13 = getelementptr inbounds %"struct.(anonymous namespace)::TestContext", ptr %26, i32 0, i32 0
  %27 = load i32, ptr %iterations13, align 8
  %cmp14 = icmp slt i32 %25, %27
  br i1 %cmp14, label %if.then, label %if.end

if.then:                                          ; preds = %while.end
  %28 = load ptr, ptr %cxt.addr, align 8
  %g015 = getelementptr inbounds %"struct.(anonymous namespace)::TestContext", ptr %28, i32 0, i32 2
  %29 = load i32, ptr %g015, align 8
  %add = add nsw i32 %29, 1
  store i32 %add, ptr %a, align 4
  %30 = load i32, ptr %a, align 4
  %31 = load ptr, ptr %cxt.addr, align 8
  %g016 = getelementptr inbounds %"struct.(anonymous namespace)::TestContext", ptr %31, i32 0, i32 2
  store i32 %30, ptr %g016, align 8
  %32 = load ptr, ptr %cxt.addr, align 8
  %cv17 = getelementptr inbounds %"struct.(anonymous namespace)::TestContext", ptr %32, i32 0, i32 5
  invoke void @_ZN4absl7CondVar9SignalAllEv(ptr noundef nonnull align 8 dereferenceable(8) %cv17)
          to label %invoke.cont18 unwind label %lpad

invoke.cont18:                                    ; preds = %if.then
  %33 = load ptr, ptr %cxt.addr, align 8
  %threads = getelementptr inbounds %"struct.(anonymous namespace)::TestContext", ptr %33, i32 0, i32 1
  %34 = load i32, ptr %threads, align 4
  %35 = load i32, ptr %target, align 4
  %add19 = add nsw i32 %35, %34
  store i32 %add19, ptr %target, align 4
  br label %if.end

if.end:                                           ; preds = %invoke.cont18, %while.end
  br label %while.cond, !llvm.loop !58

while.end20:                                      ; preds = %while.cond
  call void @_ZN4absl9MutexLockD2Ev(ptr noundef nonnull align 8 dereferenceable(8) %l) #3
  ret void

eh.resume:                                        ; preds = %lpad
  %exn = load ptr, ptr %exn.slot, align 8
  %sel = load i32, ptr %ehselector.slot, align 4
  %lpad.val = insertvalue { ptr, i32 } poison, ptr %exn, 0
  %lpad.val21 = insertvalue { ptr, i32 } %lpad.val, i32 %sel, 1
  resume { ptr, i32 } %lpad.val21
}