; Function Attrs: mustprogress uwtable
define internal void @_ZN12_GLOBAL__N_113TestCVTimeoutEPNS_11TestContextEi(ptr noundef %cxt, i32 noundef %c) #3 personality ptr @__gxx_personality_v0 {
entry:
  %agg.tmp.i = alloca %"class.absl::synchronization_internal::KernelTimeout", align 8
  %mu = getelementptr inbounds i8, ptr %cxt, i64 16
  tail call void @_ZN4absl5Mutex4LockEv(ptr noundef nonnull align 8 dereferenceable(8) %mu)
  invoke void @_ZNK4absl5Mutex10AssertHeldEv(ptr noundef nonnull align 8 dereferenceable(8) %mu)
          to label %while.cond.preheader unwind label %lpad.loopexit.split-lp.loopexit.split-lp

while.cond.preheader:                             ; preds = %entry
  %g0 = getelementptr inbounds i8, ptr %cxt, i64 8
  %0 = load i32, ptr %g0, align 8
  %1 = load i32, ptr %cxt, align 8
  %cmp29 = icmp slt i32 %0, %1
  br i1 %cmp29, label %while.cond2.preheader.lr.ph, label %while.end20

while.cond2.preheader.lr.ph:                      ; preds = %while.cond.preheader
  %cv = getelementptr inbounds i8, ptr %cxt, i64 24
  %threads = getelementptr inbounds i8, ptr %cxt, i64 4
  br label %while.cond2.preheader

while.cond2.preheader:                            ; preds = %while.cond2.preheader.lr.ph, %if.end
  %2 = phi i32 [ %1, %while.cond2.preheader.lr.ph ], [ %13, %if.end ]
  %3 = phi i32 [ %0, %while.cond2.preheader.lr.ph ], [ %14, %if.end ]
  %target.030 = phi i32 [ %c, %while.cond2.preheader.lr.ph ], [ %target.1, %if.end ]
  %cmp4.not27 = icmp eq i32 %3, %target.030
  br i1 %cmp4.not27, label %while.end, label %land.rhs

land.rhs:                                         ; preds = %while.cond2.preheader, %_ZN4absl7CondVar15WaitWithTimeoutEPNS_5MutexENS_8DurationE.exit
  %4 = phi i32 [ %7, %_ZN4absl7CondVar15WaitWithTimeoutEPNS_5MutexENS_8DurationE.exit ], [ %3, %while.cond2.preheader ]
  %5 = load i32, ptr %cxt, align 8
  %cmp7.not = icmp eq i32 %4, %5
  br i1 %cmp7.not, label %while.end20, label %while.body8

while.body8:                                      ; preds = %land.rhs
  call void @llvm.lifetime.start.p0(i64 8, ptr nonnull %agg.tmp.i)
  invoke void @_ZN4absl24synchronization_internal13KernelTimeoutC1ENS_8DurationE(ptr noundef nonnull align 8 dereferenceable(8) %agg.tmp.i, i64 100, i32 0)
          to label %.noexc unwind label %lpad.loopexit

.noexc:                                           ; preds = %while.body8
  %6 = load i64, ptr %agg.tmp.i, align 8
  %call.i17 = invoke noundef zeroext i1 @_ZN4absl7CondVar10WaitCommonEPNS_5MutexENS_24synchronization_internal13KernelTimeoutE(ptr noundef nonnull align 8 dereferenceable(8) %cv, ptr noundef nonnull %mu, i64 %6)
          to label %_ZN4absl7CondVar15WaitWithTimeoutEPNS_5MutexENS_8DurationE.exit unwind label %lpad.loopexit

_ZN4absl7CondVar15WaitWithTimeoutEPNS_5MutexENS_8DurationE.exit: ; preds = %.noexc
  call void @llvm.lifetime.end.p0(i64 8, ptr nonnull %agg.tmp.i)
  %7 = load i32, ptr %g0, align 8
  %cmp4.not = icmp eq i32 %7, %target.030
  br i1 %cmp4.not, label %_ZN4absl7CondVar15WaitWithTimeoutEPNS_5MutexENS_8DurationE.exit.while.end.loopexit_crit_edge, label %land.rhs

_ZN4absl7CondVar15WaitWithTimeoutEPNS_5MutexENS_8DurationE.exit.while.end.loopexit_crit_edge: ; preds = %_ZN4absl7CondVar15WaitWithTimeoutEPNS_5MutexENS_8DurationE.exit
  %.pre.pre = load i32, ptr %cxt, align 8
  br label %while.end

lpad.loopexit:                                    ; preds = %while.body8, %.noexc
  %lpad.loopexit21 = landingpad { ptr, i32 }
          cleanup
  br label %lpad

lpad.loopexit.split-lp.loopexit:                  ; preds = %if.then
  %lpad.loopexit23 = landingpad { ptr, i32 }
          cleanup
  br label %lpad

lpad.loopexit.split-lp.loopexit.split-lp:         ; preds = %entry
  %lpad.loopexit.split-lp24 = landingpad { ptr, i32 }
          cleanup
  br label %lpad

lpad:                                             ; preds = %lpad.loopexit.split-lp.loopexit, %lpad.loopexit.split-lp.loopexit.split-lp, %lpad.loopexit
  %lpad.phi = phi { ptr, i32 } [ %lpad.loopexit21, %lpad.loopexit ], [ %lpad.loopexit23, %lpad.loopexit.split-lp.loopexit ], [ %lpad.loopexit.split-lp24, %lpad.loopexit.split-lp.loopexit.split-lp ]
  invoke void @_ZN4absl5Mutex6UnlockEv(ptr noundef nonnull align 8 dereferenceable(8) %mu)
          to label %_ZN4absl9MutexLockD2Ev.exit unwind label %terminate.lpad.i

terminate.lpad.i:                                 ; preds = %lpad
  %8 = landingpad { ptr, i32 }
          catch ptr null
  %9 = extractvalue { ptr, i32 } %8, 0
  call void @__clang_call_terminate(ptr %9) #38
  unreachable

_ZN4absl9MutexLockD2Ev.exit:                      ; preds = %lpad
  resume { ptr, i32 } %lpad.phi

while.end:                                        ; preds = %_ZN4absl7CondVar15WaitWithTimeoutEPNS_5MutexENS_8DurationE.exit.while.end.loopexit_crit_edge, %while.cond2.preheader
  %10 = phi i32 [ %2, %while.cond2.preheader ], [ %.pre.pre, %_ZN4absl7CondVar15WaitWithTimeoutEPNS_5MutexENS_8DurationE.exit.while.end.loopexit_crit_edge ]
  %11 = phi i32 [ %3, %while.cond2.preheader ], [ %target.030, %_ZN4absl7CondVar15WaitWithTimeoutEPNS_5MutexENS_8DurationE.exit.while.end.loopexit_crit_edge ]
  %cmp14 = icmp slt i32 %11, %10
  br i1 %cmp14, label %if.then, label %if.end

if.then:                                          ; preds = %while.end
  %add = add nsw i32 %11, 1
  store i32 %add, ptr %g0, align 8
  invoke void @_ZN4absl7CondVar9SignalAllEv(ptr noundef nonnull align 8 dereferenceable(8) %cv)
          to label %invoke.cont18 unwind label %lpad.loopexit.split-lp.loopexit

invoke.cont18:                                    ; preds = %if.then
  %12 = load i32, ptr %threads, align 4
  %add19 = add nsw i32 %12, %target.030
  %.pre31 = load i32, ptr %g0, align 8
  %.pre32 = load i32, ptr %cxt, align 8
  br label %if.end

if.end:                                           ; preds = %invoke.cont18, %while.end
  %13 = phi i32 [ %.pre32, %invoke.cont18 ], [ %10, %while.end ]
  %14 = phi i32 [ %.pre31, %invoke.cont18 ], [ %11, %while.end ]
  %target.1 = phi i32 [ %add19, %invoke.cont18 ], [ %target.030, %while.end ]
  %cmp = icmp slt i32 %14, %13
  br i1 %cmp, label %while.cond2.preheader, label %while.end20, !llvm.loop !334

while.end20:                                      ; preds = %if.end, %land.rhs, %while.cond.preheader
  invoke void @_ZN4absl5Mutex6UnlockEv(ptr noundef nonnull align 8 dereferenceable(8) %mu)
          to label %_ZN4absl9MutexLockD2Ev.exit19 unwind label %terminate.lpad.i18

terminate.lpad.i18:                               ; preds = %while.end20
  %15 = landingpad { ptr, i32 }
          catch ptr null
  %16 = extractvalue { ptr, i32 } %15, 0
  call void @__clang_call_terminate(ptr %16) #38
  unreachable

_ZN4absl9MutexLockD2Ev.exit19:                    ; preds = %while.end20
  ret void
}